
build/kernel.elf:     file format elf32-littlearm


Disassembly of section .text:

00008000 <_start>:
    8000:	e3a0d902 	mov	sp, #32768	; 0x8000
    8004:	eb000119 	bl	8470 <init>

00008008 <hang>:
    8008:	eafffffe 	b	8008 <hang>

0000800c <PUT32>:
    800c:	e5801000 	str	r1, [r0]
    8010:	e12fff1e 	bx	lr

00008014 <PUT16>:
    8014:	e1c010b0 	strh	r1, [r0]
    8018:	e12fff1e 	bx	lr

0000801c <PUT_BYTE>:
    801c:	e5c01000 	strb	r1, [r0]
    8020:	e12fff1e 	bx	lr

00008024 <GET32>:
    8024:	e5900000 	ldr	r0, [r0]
    8028:	e12fff1e 	bx	lr

0000802c <GET16>:
    802c:	e1d000b0 	ldrh	r0, [r0]
    8030:	e12fff1e 	bx	lr

00008034 <GET_BYTE>:
    8034:	e5d00000 	ldrb	r0, [r0]
    8038:	e12fff1e 	bx	lr

0000803c <gpu_draw_char>:
    803c:	e92d4800 	push	{fp, lr}
    8040:	e28db004 	add	fp, sp, #4
    8044:	e24dd028 	sub	sp, sp, #40	; 0x28
    8048:	e50b1024 	str	r1, [fp, #-36]	; 0xffffffdc
    804c:	e50b2028 	str	r2, [fp, #-40]	; 0xffffffd8
    8050:	e50b302c 	str	r3, [fp, #-44]	; 0xffffffd4
    8054:	e1a03000 	mov	r3, r0
    8058:	e54b301d 	strb	r3, [fp, #-29]	; 0xffffffe3
    805c:	e55b301d 	ldrb	r3, [fp, #-29]	; 0xffffffe3
    8060:	e3530080 	cmp	r3, #128	; 0x80
    8064:	8a000009 	bhi	8090 <gpu_draw_char+0x54>
    8068:	e51b3024 	ldr	r3, [fp, #-36]	; 0xffffffdc
    806c:	e3530e5a 	cmp	r3, #1440	; 0x5a0
    8070:	2a000006 	bcs	8090 <gpu_draw_char+0x54>
    8074:	e51b2028 	ldr	r2, [fp, #-40]	; 0xffffffd8
    8078:	e59f3144 	ldr	r3, [pc, #324]	; 81c4 <gpu_draw_char+0x188>
    807c:	e1520003 	cmp	r2, r3
    8080:	8a000002 	bhi	8090 <gpu_draw_char+0x54>
    8084:	e51b302c 	ldr	r3, [fp, #-44]	; 0xffffffd4
    8088:	e3530000 	cmp	r3, #0
    808c:	1a000000 	bne	8094 <gpu_draw_char+0x58>
    8090:	ea000048 	b	81b8 <gpu_draw_char+0x17c>
    8094:	e55b301d 	ldrb	r3, [fp, #-29]	; 0xffffffe3
    8098:	e1a03203 	lsl	r3, r3, #4
    809c:	e50b3008 	str	r3, [fp, #-8]
    80a0:	e3a03004 	mov	r3, #4
    80a4:	e50b3018 	str	r3, [fp, #-24]	; 0xffffffe8
    80a8:	e51b2018 	ldr	r2, [fp, #-24]	; 0xffffffe8
    80ac:	e1a03002 	mov	r3, r2
    80b0:	e1a03083 	lsl	r3, r3, #1
    80b4:	e0833002 	add	r3, r3, r2
    80b8:	e1a02203 	lsl	r2, r3, #4
    80bc:	e0632002 	rsb	r2, r3, r2
    80c0:	e1a03282 	lsl	r3, r2, #5
    80c4:	e1a02003 	mov	r2, r3
    80c8:	e50b201c 	str	r2, [fp, #-28]	; 0xffffffe4
    80cc:	e51b302c 	ldr	r3, [fp, #-44]	; 0xffffffd4
    80d0:	e2833020 	add	r3, r3, #32
    80d4:	e1a00003 	mov	r0, r3
    80d8:	ebffffd1 	bl	8024 <GET32>
    80dc:	e50b000c 	str	r0, [fp, #-12]
    80e0:	e51b3024 	ldr	r3, [fp, #-36]	; 0xffffffdc
    80e4:	e51b2018 	ldr	r2, [fp, #-24]	; 0xffffffe8
    80e8:	e0020293 	mul	r2, r3, r2
    80ec:	e51b3028 	ldr	r3, [fp, #-40]	; 0xffffffd8
    80f0:	e51b101c 	ldr	r1, [fp, #-28]	; 0xffffffe4
    80f4:	e0030391 	mul	r3, r1, r3
    80f8:	e0823003 	add	r3, r2, r3
    80fc:	e51b200c 	ldr	r2, [fp, #-12]
    8100:	e0823003 	add	r3, r2, r3
    8104:	e50b300c 	str	r3, [fp, #-12]
    8108:	e3a03000 	mov	r3, #0
    810c:	e50b3010 	str	r3, [fp, #-16]
    8110:	ea000025 	b	81ac <gpu_draw_char+0x170>
    8114:	e3a03080 	mov	r3, #128	; 0x80
    8118:	e50b3014 	str	r3, [fp, #-20]	; 0xffffffec
    811c:	ea000012 	b	816c <gpu_draw_char+0x130>
    8120:	e59f20a0 	ldr	r2, [pc, #160]	; 81c8 <gpu_draw_char+0x18c>
    8124:	e51b3008 	ldr	r3, [fp, #-8]
    8128:	e0823003 	add	r3, r2, r3
    812c:	e5d33000 	ldrb	r3, [r3]
    8130:	e1a02003 	mov	r2, r3
    8134:	e51b3014 	ldr	r3, [fp, #-20]	; 0xffffffec
    8138:	e0023003 	and	r3, r2, r3
    813c:	e3530000 	cmp	r3, #0
    8140:	0a000002 	beq	8150 <gpu_draw_char+0x114>
    8144:	e51b000c 	ldr	r0, [fp, #-12]
    8148:	e3e01000 	mvn	r1, #0
    814c:	ebffffae 	bl	800c <PUT32>
    8150:	e51b200c 	ldr	r2, [fp, #-12]
    8154:	e51b3018 	ldr	r3, [fp, #-24]	; 0xffffffe8
    8158:	e0823003 	add	r3, r2, r3
    815c:	e50b300c 	str	r3, [fp, #-12]
    8160:	e51b3014 	ldr	r3, [fp, #-20]	; 0xffffffec
    8164:	e1a030a3 	lsr	r3, r3, #1
    8168:	e50b3014 	str	r3, [fp, #-20]	; 0xffffffec
    816c:	e51b3014 	ldr	r3, [fp, #-20]	; 0xffffffec
    8170:	e3530000 	cmp	r3, #0
    8174:	1affffe9 	bne	8120 <gpu_draw_char+0xe4>
    8178:	e51b3018 	ldr	r3, [fp, #-24]	; 0xffffffe8
    817c:	e1a03183 	lsl	r3, r3, #3
    8180:	e51b201c 	ldr	r2, [fp, #-28]	; 0xffffffe4
    8184:	e0633002 	rsb	r3, r3, r2
    8188:	e51b200c 	ldr	r2, [fp, #-12]
    818c:	e0823003 	add	r3, r2, r3
    8190:	e50b300c 	str	r3, [fp, #-12]
    8194:	e51b3008 	ldr	r3, [fp, #-8]
    8198:	e2833001 	add	r3, r3, #1
    819c:	e50b3008 	str	r3, [fp, #-8]
    81a0:	e51b3010 	ldr	r3, [fp, #-16]
    81a4:	e2833001 	add	r3, r3, #1
    81a8:	e50b3010 	str	r3, [fp, #-16]
    81ac:	e51b3010 	ldr	r3, [fp, #-16]
    81b0:	e353000f 	cmp	r3, #15
    81b4:	9affffd6 	bls	8114 <gpu_draw_char+0xd8>
    81b8:	e24bd004 	sub	sp, fp, #4
    81bc:	e8bd4800 	pop	{fp, lr}
    81c0:	e12fff1e 	bx	lr
    81c4:	00000437 	andeq	r0, r0, r7, lsr r4
    81c8:	00008734 	andeq	r8, r0, r4, lsr r7

000081cc <gpu_draw_str>:
    81cc:	e92d4800 	push	{fp, lr}
    81d0:	e28db004 	add	fp, sp, #4
    81d4:	e24dd018 	sub	sp, sp, #24
    81d8:	e50b0010 	str	r0, [fp, #-16]
    81dc:	e50b1014 	str	r1, [fp, #-20]	; 0xffffffec
    81e0:	e50b2018 	str	r2, [fp, #-24]	; 0xffffffe8
    81e4:	e50b301c 	str	r3, [fp, #-28]	; 0xffffffe4
    81e8:	e51b3010 	ldr	r3, [fp, #-16]
    81ec:	e1a00003 	mov	r0, r3
    81f0:	ebffff8f 	bl	8034 <GET_BYTE>
    81f4:	e1a03000 	mov	r3, r0
    81f8:	e54b3005 	strb	r3, [fp, #-5]
    81fc:	e55b3005 	ldrb	r3, [fp, #-5]
    8200:	e3530000 	cmp	r3, #0
    8204:	1a000000 	bne	820c <gpu_draw_str+0x40>
    8208:	ea000015 	b	8264 <gpu_draw_str+0x98>
    820c:	e51b3014 	ldr	r3, [fp, #-20]	; 0xffffffec
    8210:	e2833008 	add	r3, r3, #8
    8214:	e3530e5a 	cmp	r3, #1440	; 0x5a0
    8218:	3a000004 	bcc	8230 <gpu_draw_str+0x64>
    821c:	e3a03000 	mov	r3, #0
    8220:	e50b3014 	str	r3, [fp, #-20]	; 0xffffffec
    8224:	e51b3018 	ldr	r3, [fp, #-24]	; 0xffffffe8
    8228:	e2833014 	add	r3, r3, #20
    822c:	e50b3018 	str	r3, [fp, #-24]	; 0xffffffe8
    8230:	e55b3005 	ldrb	r3, [fp, #-5]
    8234:	e1a00003 	mov	r0, r3
    8238:	e51b1014 	ldr	r1, [fp, #-20]	; 0xffffffec
    823c:	e51b2018 	ldr	r2, [fp, #-24]	; 0xffffffe8
    8240:	e51b301c 	ldr	r3, [fp, #-28]	; 0xffffffe4
    8244:	ebffff7c 	bl	803c <gpu_draw_char>
    8248:	e51b3014 	ldr	r3, [fp, #-20]	; 0xffffffec
    824c:	e283300a 	add	r3, r3, #10
    8250:	e50b3014 	str	r3, [fp, #-20]	; 0xffffffec
    8254:	e51b3010 	ldr	r3, [fp, #-16]
    8258:	e2833001 	add	r3, r3, #1
    825c:	e50b3010 	str	r3, [fp, #-16]
    8260:	eaffffe0 	b	81e8 <gpu_draw_str+0x1c>
    8264:	e24bd004 	sub	sp, fp, #4
    8268:	e8bd4800 	pop	{fp, lr}
    826c:	e12fff1e 	bx	lr

00008270 <wait>:
    8270:	e92d4800 	push	{fp, lr}
    8274:	e28db004 	add	fp, sp, #4
    8278:	e24dd010 	sub	sp, sp, #16
    827c:	e50b0010 	str	r0, [fp, #-16]
    8280:	e59f0040 	ldr	r0, [pc, #64]	; 82c8 <wait+0x58>
    8284:	ebffff66 	bl	8024 <GET32>
    8288:	e50b0008 	str	r0, [fp, #-8]
    828c:	e51b2010 	ldr	r2, [fp, #-16]
    8290:	e51b3008 	ldr	r3, [fp, #-8]
    8294:	e0823003 	add	r3, r2, r3
    8298:	e50b300c 	str	r3, [fp, #-12]
    829c:	ea000002 	b	82ac <wait+0x3c>
    82a0:	e59f0020 	ldr	r0, [pc, #32]	; 82c8 <wait+0x58>
    82a4:	ebffff5e 	bl	8024 <GET32>
    82a8:	e50b0008 	str	r0, [fp, #-8]
    82ac:	e51b2008 	ldr	r2, [fp, #-8]
    82b0:	e51b300c 	ldr	r3, [fp, #-12]
    82b4:	e1520003 	cmp	r2, r3
    82b8:	3afffff8 	bcc	82a0 <wait+0x30>
    82bc:	e24bd004 	sub	sp, fp, #4
    82c0:	e8bd4800 	pop	{fp, lr}
    82c4:	e12fff1e 	bx	lr
    82c8:	20003004 	andcs	r3, r0, r4

000082cc <setGpioFunc>:
    82cc:	e92d4800 	push	{fp, lr}
    82d0:	e28db004 	add	fp, sp, #4
    82d4:	e24dd010 	sub	sp, sp, #16
    82d8:	e50b0010 	str	r0, [fp, #-16]
    82dc:	e50b1014 	str	r1, [fp, #-20]	; 0xffffffec
    82e0:	e51b3010 	ldr	r3, [fp, #-16]
    82e4:	e3530035 	cmp	r3, #53	; 0x35
    82e8:	8a000002 	bhi	82f8 <setGpioFunc+0x2c>
    82ec:	e51b3014 	ldr	r3, [fp, #-20]	; 0xffffffec
    82f0:	e3530007 	cmp	r3, #7
    82f4:	9a000000 	bls	82fc <setGpioFunc+0x30>
    82f8:	ea000017 	b	835c <setGpioFunc+0x90>
    82fc:	e59f3064 	ldr	r3, [pc, #100]	; 8368 <setGpioFunc+0x9c>
    8300:	e50b3008 	str	r3, [fp, #-8]
    8304:	ea000005 	b	8320 <setGpioFunc+0x54>
    8308:	e51b3010 	ldr	r3, [fp, #-16]
    830c:	e243300a 	sub	r3, r3, #10
    8310:	e50b3010 	str	r3, [fp, #-16]
    8314:	e51b3008 	ldr	r3, [fp, #-8]
    8318:	e2833004 	add	r3, r3, #4
    831c:	e50b3008 	str	r3, [fp, #-8]
    8320:	e51b3010 	ldr	r3, [fp, #-16]
    8324:	e3530009 	cmp	r3, #9
    8328:	8afffff6 	bhi	8308 <setGpioFunc+0x3c>
    832c:	e51b3010 	ldr	r3, [fp, #-16]
    8330:	e1a03083 	lsl	r3, r3, #1
    8334:	e51b2010 	ldr	r2, [fp, #-16]
    8338:	e0823003 	add	r3, r2, r3
    833c:	e50b3010 	str	r3, [fp, #-16]
    8340:	e51b3010 	ldr	r3, [fp, #-16]
    8344:	e51b2014 	ldr	r2, [fp, #-20]	; 0xffffffec
    8348:	e1a03312 	lsl	r3, r2, r3
    834c:	e50b3014 	str	r3, [fp, #-20]	; 0xffffffec
    8350:	e51b0008 	ldr	r0, [fp, #-8]
    8354:	e51b1014 	ldr	r1, [fp, #-20]	; 0xffffffec
    8358:	ebffff2b 	bl	800c <PUT32>
    835c:	e24bd004 	sub	sp, fp, #4
    8360:	e8bd4800 	pop	{fp, lr}
    8364:	e12fff1e 	bx	lr
    8368:	20200000 	eorcs	r0, r0, r0

0000836c <setGpio>:
    836c:	e92d4800 	push	{fp, lr}
    8370:	e28db004 	add	fp, sp, #4
    8374:	e24dd018 	sub	sp, sp, #24
    8378:	e50b0018 	str	r0, [fp, #-24]	; 0xffffffe8
    837c:	e50b101c 	str	r1, [fp, #-28]	; 0xffffffe4
    8380:	e51b3018 	ldr	r3, [fp, #-24]	; 0xffffffe8
    8384:	e3530035 	cmp	r3, #53	; 0x35
    8388:	9a000000 	bls	8390 <setGpio+0x24>
    838c:	ea000021 	b	8418 <setGpio+0xac>
    8390:	e59f308c 	ldr	r3, [pc, #140]	; 8424 <setGpio+0xb8>
    8394:	e50b3008 	str	r3, [fp, #-8]
    8398:	e51b3018 	ldr	r3, [fp, #-24]	; 0xffffffe8
    839c:	e1a032a3 	lsr	r3, r3, #5
    83a0:	e50b300c 	str	r3, [fp, #-12]
    83a4:	e51b300c 	ldr	r3, [fp, #-12]
    83a8:	e1a03103 	lsl	r3, r3, #2
    83ac:	e50b300c 	str	r3, [fp, #-12]
    83b0:	e51b2008 	ldr	r2, [fp, #-8]
    83b4:	e51b300c 	ldr	r3, [fp, #-12]
    83b8:	e0823003 	add	r3, r2, r3
    83bc:	e50b3008 	str	r3, [fp, #-8]
    83c0:	e51b3018 	ldr	r3, [fp, #-24]	; 0xffffffe8
    83c4:	e203301f 	and	r3, r3, #31
    83c8:	e50b3018 	str	r3, [fp, #-24]	; 0xffffffe8
    83cc:	e3a03001 	mov	r3, #1
    83d0:	e50b3010 	str	r3, [fp, #-16]
    83d4:	e51b3018 	ldr	r3, [fp, #-24]	; 0xffffffe8
    83d8:	e51b2010 	ldr	r2, [fp, #-16]
    83dc:	e1a03312 	lsl	r3, r2, r3
    83e0:	e50b3010 	str	r3, [fp, #-16]
    83e4:	e51b301c 	ldr	r3, [fp, #-28]	; 0xffffffe4
    83e8:	e3530000 	cmp	r3, #0
    83ec:	1a000003 	bne	8400 <setGpio+0x94>
    83f0:	e51b3008 	ldr	r3, [fp, #-8]
    83f4:	e2833028 	add	r3, r3, #40	; 0x28
    83f8:	e50b3008 	str	r3, [fp, #-8]
    83fc:	ea000002 	b	840c <setGpio+0xa0>
    8400:	e51b3008 	ldr	r3, [fp, #-8]
    8404:	e283301c 	add	r3, r3, #28
    8408:	e50b3008 	str	r3, [fp, #-8]
    840c:	e51b0008 	ldr	r0, [fp, #-8]
    8410:	e51b1010 	ldr	r1, [fp, #-16]
    8414:	ebfffefc 	bl	800c <PUT32>
    8418:	e24bd004 	sub	sp, fp, #4
    841c:	e8bd4800 	pop	{fp, lr}
    8420:	e12fff1e 	bx	lr
    8424:	20200000 	eorcs	r0, r0, r0

00008428 <ok_flashInf>:
    8428:	e92d4800 	push	{fp, lr}
    842c:	e28db004 	add	fp, sp, #4
    8430:	e24dd008 	sub	sp, sp, #8
    8434:	e50b0008 	str	r0, [fp, #-8]
    8438:	e3a00010 	mov	r0, #16
    843c:	e3a01001 	mov	r1, #1
    8440:	ebffffa1 	bl	82cc <setGpioFunc>
    8444:	e3a00010 	mov	r0, #16
    8448:	e3a01000 	mov	r1, #0
    844c:	ebffffc6 	bl	836c <setGpio>
    8450:	e51b0008 	ldr	r0, [fp, #-8]
    8454:	ebffff85 	bl	8270 <wait>
    8458:	e3a00010 	mov	r0, #16
    845c:	e3a01001 	mov	r1, #1
    8460:	ebffffc1 	bl	836c <setGpio>
    8464:	e51b0008 	ldr	r0, [fp, #-8]
    8468:	ebffff80 	bl	8270 <wait>
    846c:	eafffff4 	b	8444 <ok_flashInf+0x1c>

00008470 <init>:
    8470:	e92d4800 	push	{fp, lr}
    8474:	e28db004 	add	fp, sp, #4
    8478:	e24dd008 	sub	sp, sp, #8
    847c:	e3a00e5a 	mov	r0, #1440	; 0x5a0
    8480:	e59f1058 	ldr	r1, [pc, #88]	; 84e0 <init+0x70>
    8484:	e3a02020 	mov	r2, #32
    8488:	eb00005f 	bl	860c <init_frame_buffer>
    848c:	e50b0008 	str	r0, [fp, #-8]
    8490:	e51b3008 	ldr	r3, [fp, #-8]
    8494:	e3530000 	cmp	r3, #0
    8498:	1a000006 	bne	84b8 <init+0x48>
    849c:	e3a00010 	mov	r0, #16
    84a0:	e3a01001 	mov	r1, #1
    84a4:	ebffff88 	bl	82cc <setGpioFunc>
    84a8:	e3a00010 	mov	r0, #16
    84ac:	e3a01000 	mov	r1, #0
    84b0:	ebffffad 	bl	836c <setGpio>
    84b4:	ea000006 	b	84d4 <init+0x64>
    84b8:	e59f3024 	ldr	r3, [pc, #36]	; 84e4 <init+0x74>
    84bc:	e50b300c 	str	r3, [fp, #-12]
    84c0:	e51b000c 	ldr	r0, [fp, #-12]
    84c4:	e3a01000 	mov	r1, #0
    84c8:	e3a02000 	mov	r2, #0
    84cc:	e51b3008 	ldr	r3, [fp, #-8]
    84d0:	ebffff3d 	bl	81cc <gpu_draw_str>
    84d4:	e24bd004 	sub	sp, fp, #4
    84d8:	e8bd4800 	pop	{fp, lr}
    84dc:	e12fff1e 	bx	lr
    84e0:	00000438 	andeq	r0, r0, r8, lsr r4
    84e4:	00008f34 	andeq	r8, r0, r4, lsr pc

000084e8 <gpu_mailboxSend>:
    84e8:	e92d4800 	push	{fp, lr}
    84ec:	e28db004 	add	fp, sp, #4
    84f0:	e24dd010 	sub	sp, sp, #16
    84f4:	e50b0010 	str	r0, [fp, #-16]
    84f8:	e50b1014 	str	r1, [fp, #-20]	; 0xffffffec
    84fc:	e51b3014 	ldr	r3, [fp, #-20]	; 0xffffffec
    8500:	e203300f 	and	r3, r3, #15
    8504:	e3530000 	cmp	r3, #0
    8508:	0a000001 	beq	8514 <gpu_mailboxSend+0x2c>
    850c:	e3a03001 	mov	r3, #1
    8510:	ea000015 	b	856c <gpu_mailboxSend+0x84>
    8514:	e51b3010 	ldr	r3, [fp, #-16]
    8518:	e353000f 	cmp	r3, #15
    851c:	9a000001 	bls	8528 <gpu_mailboxSend+0x40>
    8520:	e3a03001 	mov	r3, #1
    8524:	ea000010 	b	856c <gpu_mailboxSend+0x84>
    8528:	e59f004c 	ldr	r0, [pc, #76]	; 857c <gpu_mailboxSend+0x94>
    852c:	ebfffebc 	bl	8024 <GET32>
    8530:	e50b0008 	str	r0, [fp, #-8]
    8534:	e51b3008 	ldr	r3, [fp, #-8]
    8538:	e2033102 	and	r3, r3, #-2147483648	; 0x80000000
    853c:	e50b3008 	str	r3, [fp, #-8]
    8540:	e51b3008 	ldr	r3, [fp, #-8]
    8544:	e3530000 	cmp	r3, #0
    8548:	1afffff6 	bne	8528 <gpu_mailboxSend+0x40>
    854c:	e51b2014 	ldr	r2, [fp, #-20]	; 0xffffffec
    8550:	e51b3010 	ldr	r3, [fp, #-16]
    8554:	e1823003 	orr	r3, r2, r3
    8558:	e50b3014 	str	r3, [fp, #-20]	; 0xffffffec
    855c:	e59f001c 	ldr	r0, [pc, #28]	; 8580 <gpu_mailboxSend+0x98>
    8560:	e51b1014 	ldr	r1, [fp, #-20]	; 0xffffffec
    8564:	ebfffea8 	bl	800c <PUT32>
    8568:	e3a03000 	mov	r3, #0
    856c:	e1a00003 	mov	r0, r3
    8570:	e24bd004 	sub	sp, fp, #4
    8574:	e8bd4800 	pop	{fp, lr}
    8578:	e12fff1e 	bx	lr
    857c:	2000b898 	mulcs	r0, r8, r8
    8580:	2000b8a0 	andcs	fp, r0, r0, lsr #17

00008584 <gpu_mailboxRead>:
    8584:	e92d4800 	push	{fp, lr}
    8588:	e28db004 	add	fp, sp, #4
    858c:	e24dd018 	sub	sp, sp, #24
    8590:	e50b0018 	str	r0, [fp, #-24]	; 0xffffffe8
    8594:	e51b3018 	ldr	r3, [fp, #-24]	; 0xffffffe8
    8598:	e353000f 	cmp	r3, #15
    859c:	9a000001 	bls	85a8 <gpu_mailboxRead+0x24>
    85a0:	e51b3018 	ldr	r3, [fp, #-24]	; 0xffffffe8
    85a4:	ea000012 	b	85f4 <gpu_mailboxRead+0x70>
    85a8:	e59f0054 	ldr	r0, [pc, #84]	; 8604 <gpu_mailboxRead+0x80>
    85ac:	ebfffe9c 	bl	8024 <GET32>
    85b0:	e50b0008 	str	r0, [fp, #-8]
    85b4:	e51b3008 	ldr	r3, [fp, #-8]
    85b8:	e2033101 	and	r3, r3, #1073741824	; 0x40000000
    85bc:	e3530000 	cmp	r3, #0
    85c0:	1afffff8 	bne	85a8 <gpu_mailboxRead+0x24>
    85c4:	e59f003c 	ldr	r0, [pc, #60]	; 8608 <gpu_mailboxRead+0x84>
    85c8:	ebfffe95 	bl	8024 <GET32>
    85cc:	e50b000c 	str	r0, [fp, #-12]
    85d0:	e51b300c 	ldr	r3, [fp, #-12]
    85d4:	e203300f 	and	r3, r3, #15
    85d8:	e50b3010 	str	r3, [fp, #-16]
    85dc:	e51b2010 	ldr	r2, [fp, #-16]
    85e0:	e51b3018 	ldr	r3, [fp, #-24]	; 0xffffffe8
    85e4:	e1520003 	cmp	r2, r3
    85e8:	1affffee 	bne	85a8 <gpu_mailboxRead+0x24>
    85ec:	e51b300c 	ldr	r3, [fp, #-12]
    85f0:	e3c3300f 	bic	r3, r3, #15
    85f4:	e1a00003 	mov	r0, r3
    85f8:	e24bd004 	sub	sp, fp, #4
    85fc:	e8bd4800 	pop	{fp, lr}
    8600:	e12fff1e 	bx	lr
    8604:	2000b898 	mulcs	r0, r8, r8
    8608:	2000b880 	andcs	fp, r0, r0, lsl #17

0000860c <init_frame_buffer>:
    860c:	e92d4800 	push	{fp, lr}
    8610:	e28db004 	add	fp, sp, #4
    8614:	e24dd020 	sub	sp, sp, #32
    8618:	e50b0018 	str	r0, [fp, #-24]	; 0xffffffe8
    861c:	e50b101c 	str	r1, [fp, #-28]	; 0xffffffe4
    8620:	e50b2020 	str	r2, [fp, #-32]	; 0xffffffe0
    8624:	e51b3018 	ldr	r3, [fp, #-24]	; 0xffffffe8
    8628:	e3530a01 	cmp	r3, #4096	; 0x1000
    862c:	8a000005 	bhi	8648 <init_frame_buffer+0x3c>
    8630:	e51b301c 	ldr	r3, [fp, #-28]	; 0xffffffe4
    8634:	e3530a01 	cmp	r3, #4096	; 0x1000
    8638:	8a000002 	bhi	8648 <init_frame_buffer+0x3c>
    863c:	e51b3020 	ldr	r3, [fp, #-32]	; 0xffffffe0
    8640:	e3530020 	cmp	r3, #32
    8644:	9a000001 	bls	8650 <init_frame_buffer+0x44>
    8648:	e3a03000 	mov	r3, #0
    864c:	ea000033 	b	8720 <init_frame_buffer+0x114>
    8650:	e59f30d8 	ldr	r3, [pc, #216]	; 8730 <init_frame_buffer+0x124>
    8654:	e50b3008 	str	r3, [fp, #-8]
    8658:	e51b3008 	ldr	r3, [fp, #-8]
    865c:	e51b2018 	ldr	r2, [fp, #-24]	; 0xffffffe8
    8660:	e5832000 	str	r2, [r3]
    8664:	e51b3008 	ldr	r3, [fp, #-8]
    8668:	e51b201c 	ldr	r2, [fp, #-28]	; 0xffffffe4
    866c:	e5832004 	str	r2, [r3, #4]
    8670:	e51b3008 	ldr	r3, [fp, #-8]
    8674:	e51b2018 	ldr	r2, [fp, #-24]	; 0xffffffe8
    8678:	e5832008 	str	r2, [r3, #8]
    867c:	e51b3008 	ldr	r3, [fp, #-8]
    8680:	e51b201c 	ldr	r2, [fp, #-28]	; 0xffffffe4
    8684:	e583200c 	str	r2, [r3, #12]
    8688:	e51b3008 	ldr	r3, [fp, #-8]
    868c:	e3a02000 	mov	r2, #0
    8690:	e5832010 	str	r2, [r3, #16]
    8694:	e51b3008 	ldr	r3, [fp, #-8]
    8698:	e51b2020 	ldr	r2, [fp, #-32]	; 0xffffffe0
    869c:	e5832014 	str	r2, [r3, #20]
    86a0:	e51b3008 	ldr	r3, [fp, #-8]
    86a4:	e3a02000 	mov	r2, #0
    86a8:	e5832018 	str	r2, [r3, #24]
    86ac:	e51b3008 	ldr	r3, [fp, #-8]
    86b0:	e3a02000 	mov	r2, #0
    86b4:	e583201c 	str	r2, [r3, #28]
    86b8:	e51b3008 	ldr	r3, [fp, #-8]
    86bc:	e3a02000 	mov	r2, #0
    86c0:	e5832020 	str	r2, [r3, #32]
    86c4:	e51b3008 	ldr	r3, [fp, #-8]
    86c8:	e3a02000 	mov	r2, #0
    86cc:	e5832024 	str	r2, [r3, #36]	; 0x24
    86d0:	e51b3008 	ldr	r3, [fp, #-8]
    86d4:	e50b300c 	str	r3, [fp, #-12]
    86d8:	e3a00001 	mov	r0, #1
    86dc:	e51b100c 	ldr	r1, [fp, #-12]
    86e0:	ebffff80 	bl	84e8 <gpu_mailboxSend>
    86e4:	e50b0010 	str	r0, [fp, #-16]
    86e8:	e51b3010 	ldr	r3, [fp, #-16]
    86ec:	e3530000 	cmp	r3, #0
    86f0:	0a000001 	beq	86fc <init_frame_buffer+0xf0>
    86f4:	e3a03000 	mov	r3, #0
    86f8:	ea000008 	b	8720 <init_frame_buffer+0x114>
    86fc:	e3a00001 	mov	r0, #1
    8700:	ebffff9f 	bl	8584 <gpu_mailboxRead>
    8704:	e50b0014 	str	r0, [fp, #-20]	; 0xffffffec
    8708:	e51b3014 	ldr	r3, [fp, #-20]	; 0xffffffec
    870c:	e3530000 	cmp	r3, #0
    8710:	0a000001 	beq	871c <init_frame_buffer+0x110>
    8714:	e3a03000 	mov	r3, #0
    8718:	ea000000 	b	8720 <init_frame_buffer+0x114>
    871c:	e51b300c 	ldr	r3, [fp, #-12]
    8720:	e1a00003 	mov	r0, r3
    8724:	e24bd004 	sub	sp, fp, #4
    8728:	e8bd4800 	pop	{fp, lr}
    872c:	e12fff1e 	bx	lr
    8730:	40040000 	andmi	r0, r4, r0

Disassembly of section .rodata:

00008734 <FONT>:
	...
    8944:	20000000 	andcs	r0, r0, r0
    8948:	20202020 	eorcs	r2, r0, r0, lsr #32
    894c:	20202020 	eorcs	r2, r0, r0, lsr #32
    8950:	00200020 	eoreq	r0, r0, r0, lsr #32
    8954:	24000000 	strcs	r0, [r0], #-0
    8958:	00482424 	subeq	r2, r8, r4, lsr #8
	...
    8968:	247e2424 	ldrbtcs	r2, [lr], #-1060	; 0xfffffbdc
    896c:	247e2424 	ldrbtcs	r2, [lr], #-1060	; 0xfffffbdc
    8970:	00000024 	andeq	r0, r0, r4, lsr #32
    8974:	3c101000 	ldccc	0, cr1, [r0], {-0}
    8978:	30404042 	subcc	r4, r0, r2, asr #32
    897c:	4602060c 	strmi	r0, [r2], -ip, lsl #12
    8980:	0010103c 	andseq	r1, r0, ip, lsr r0
    8984:	62000000 	andvs	r0, r0, #0
    8988:	08086c64 	stmdaeq	r8, {r2, r5, r6, sl, fp, sp, lr}
    898c:	26301018 			; <UNDEFINED> instruction: 0x26301018
    8990:	00006626 	andeq	r6, r0, r6, lsr #12
    8994:	423c0000 	eorsmi	r0, ip, #0
    8998:	50302020 	eorspl	r2, r0, r0, lsr #32
    899c:	86854848 	strhi	r4, [r5], r8, asr #16
    89a0:	0000106a 	andeq	r1, r0, sl, rrx
    89a4:	20200000 	eorcs	r0, r0, r0
    89a8:	00202020 	eoreq	r2, r0, r0, lsr #32
	...
    89b4:	10080000 	andne	r0, r8, r0
    89b8:	40402020 	submi	r2, r0, r0, lsr #32
    89bc:	40404040 	submi	r4, r0, r0, asr #32
    89c0:	08102020 	ldmdaeq	r0, {r5, sp}
    89c4:	08100000 	ldmdaeq	r0, {}	; <UNPREDICTABLE>
    89c8:	02020404 	andeq	r0, r2, #4, 8	; 0x4000000
    89cc:	02020202 	andeq	r0, r2, #536870912	; 0x20000000
    89d0:	10080404 	andne	r0, r8, r4, lsl #8
    89d4:	7c100000 	ldcvc	0, cr0, [r0], {-0}
    89d8:	00282810 	eoreq	r2, r8, r0, lsl r8
	...
    89e8:	10101000 	andsne	r1, r0, r0
    89ec:	101010fe 	ldrshne	r1, [r0], -lr
	...
    89fc:	10100000 	andsne	r0, r0, r0
    8a00:	00402010 	subeq	r2, r0, r0, lsl r0
	...
    8a0c:	000000fe 	strdeq	r0, [r0], -lr
	...
    8a20:	00303000 	eorseq	r3, r0, r0
    8a24:	06020000 	streq	r0, [r2], -r0
    8a28:	08080c04 	stmdaeq	r8, {r2, sl, fp}
    8a2c:	30101808 	andscc	r1, r0, r8, lsl #16
    8a30:	00406020 	subeq	r6, r0, r0, lsr #32
    8a34:	423c0000 	eorsmi	r0, ip, #0
    8a38:	81818181 	orrhi	r8, r1, r1, lsl #3
    8a3c:	81818181 	orrhi	r8, r1, r1, lsl #3
    8a40:	003c4281 	eorseq	r4, ip, r1, lsl #5
    8a44:	10300000 	eorsne	r0, r0, r0
    8a48:	10101010 	andsne	r1, r0, r0, lsl r0
    8a4c:	10101010 	andsne	r1, r0, r0, lsl r0
    8a50:	00fe1010 	rscseq	r1, lr, r0, lsl r0
    8a54:	423c0000 	eorsmi	r0, ip, #0
    8a58:	02010101 	andeq	r0, r1, #1073741824	; 0x40000000
    8a5c:	20100804 	andscs	r0, r0, r4, lsl #16
    8a60:	007f7f41 	rsbseq	r7, pc, r1, asr #30
    8a64:	423c0000 	eorsmi	r0, ip, #0
    8a68:	0e010101 	adfeqs	f0, f1, f1
    8a6c:	01010101 	tsteq	r1, r1, lsl #2
    8a70:	003c4201 	eorseq	r4, ip, r1, lsl #4
    8a74:	82820000 	addhi	r0, r2, #0
    8a78:	82828282 	addhi	r8, r2, #536870920	; 0x20000008
    8a7c:	020202fe 	andeq	r0, r2, #-536870897	; 0xe000000f
    8a80:	00020202 	andeq	r0, r2, r2, lsl #4
    8a84:	80fe0000 	rscshi	r0, lr, r0
    8a88:	80808080 	addhi	r8, r0, r0, lsl #1
    8a8c:	020202fc 	andeq	r0, r2, #252, 4	; 0xc000000f
    8a90:	007c8202 	rsbseq	r8, ip, r2, lsl #4
    8a94:	201e0000 	andscs	r0, lr, r0
    8a98:	80808040 	addhi	r8, r0, r0, asr #32
    8a9c:	8282fc80 	addhi	pc, r2, #128, 24	; 0x8000
    8aa0:	007c8282 	rsbseq	r8, ip, r2, lsl #5
    8aa4:	82fe0000 	rscshi	r0, lr, #0
    8aa8:	08040402 	stmdaeq	r4, {r1, sl}
    8aac:	10100808 	andsne	r0, r0, r8, lsl #16
    8ab0:	00202020 	eoreq	r2, r0, r0, lsr #32
    8ab4:	817e0000 	cmnhi	lr, r0
    8ab8:	81818181 	orrhi	r8, r1, r1, lsl #3
    8abc:	8181817e 	orrhi	r8, r1, lr, ror r1
    8ac0:	007e8181 	rsbseq	r8, lr, r1, lsl #3
    8ac4:	817e0000 	cmnhi	lr, r0
    8ac8:	81818181 	orrhi	r8, r1, r1, lsl #3
    8acc:	0101017f 	tsteq	r1, pc, ror r1
    8ad0:	00780402 	rsbseq	r0, r8, r2, lsl #8
    8ad4:	00000000 	andeq	r0, r0, r0
    8ad8:	00303000 	eorseq	r3, r0, r0
    8adc:	00303000 	eorseq	r3, r0, r0
	...
    8ae8:	00303000 	eorseq	r3, r0, r0
    8aec:	10101000 	andsne	r1, r0, r0
    8af0:	00004020 	andeq	r4, r0, r0, lsr #32
    8af4:	00000000 	andeq	r0, r0, r0
    8af8:	20100804 	andscs	r0, r0, r4, lsl #16
    8afc:	08102040 	ldmdaeq	r0, {r6, sp}
    8b00:	00000004 	andeq	r0, r0, r4
    8b04:	00000000 	andeq	r0, r0, r0
    8b08:	007e0000 	rsbseq	r0, lr, r0
    8b0c:	00007e00 	andeq	r7, r0, r0, lsl #28
	...
    8b18:	04081020 	streq	r1, [r8], #-32	; 0xffffffe0
    8b1c:	10080402 	andne	r0, r8, r2, lsl #8
    8b20:	00000020 	andeq	r0, r0, r0, lsr #32
    8b24:	81423c00 	cmphi	r2, r0, lsl #24
    8b28:	02010101 	andeq	r0, r1, #1073741824	; 0x40000000
    8b2c:	10100804 	andsne	r0, r0, r4, lsl #16
    8b30:	00101000 	andseq	r1, r0, r0
    8b34:	827c0000 	rsbshi	r0, ip, #0
    8b38:	a6be8282 	ldrtge	r8, [lr], r2, lsl #5
    8b3c:	80bea6a6 	adcshi	sl, lr, r6, lsr #13
    8b40:	007c8280 	rsbseq	r8, ip, r0, lsl #5
    8b44:	10100000 	andsne	r0, r0, r0
    8b48:	28282828 	stmdacs	r8!, {r3, r5, fp, sp}
    8b4c:	447c4444 	ldrbtmi	r4, [ip], #-1092	; 0xfffffbbc
    8b50:	00828282 	addeq	r8, r2, r2, lsl #5
    8b54:	82fc0000 	rscshi	r0, ip, #0
    8b58:	81818181 	orrhi	r8, r1, r1, lsl #3
    8b5c:	8181fe81 	orrhi	pc, r1, r1, lsl #29
    8b60:	00fc8281 	rscseq	r8, ip, r1, lsl #5
    8b64:	403e0000 	eorsmi	r0, lr, r0
    8b68:	80808080 	addhi	r8, r0, r0, lsl #1
    8b6c:	80808080 	addhi	r8, r0, r0, lsl #1
    8b70:	003e4080 	eorseq	r4, lr, r0, lsl #1
    8b74:	82fc0000 	rscshi	r0, ip, #0
    8b78:	81818181 	orrhi	r8, r1, r1, lsl #3
    8b7c:	81818181 	orrhi	r8, r1, r1, lsl #3
    8b80:	00fc8281 	rscseq	r8, ip, r1, lsl #5
    8b84:	80fe0000 	rscshi	r0, lr, r0
    8b88:	80808080 	addhi	r8, r0, r0, lsl #1
    8b8c:	808080f8 	strdhi	r8, [r0], r8	; <UNPREDICTABLE>
    8b90:	00fe8080 	rscseq	r8, lr, r0, lsl #1
    8b94:	80fe0000 	rscshi	r0, lr, r0
    8b98:	80808080 	addhi	r8, r0, r0, lsl #1
    8b9c:	808080f8 	strdhi	r8, [r0], r8	; <UNPREDICTABLE>
    8ba0:	00808080 	addeq	r8, r0, r0, lsl #1
    8ba4:	403e0000 	eorsmi	r0, lr, r0
    8ba8:	80808080 	addhi	r8, r0, r0, lsl #1
    8bac:	81818f80 	orrhi	r8, r1, r0, lsl #31
    8bb0:	003e4181 	eorseq	r4, lr, r1, lsl #3
    8bb4:	82820000 	addhi	r0, r2, #0
    8bb8:	82828282 	addhi	r8, r2, #536870920	; 0x20000008
    8bbc:	828282fe 	addhi	r8, r2, #-536870897	; 0xe000000f
    8bc0:	00828282 	addeq	r8, r2, r2, lsl #5
    8bc4:	10fe0000 	rscsne	r0, lr, r0
    8bc8:	10101010 	andsne	r1, r0, r0, lsl r0
    8bcc:	10101010 	andsne	r1, r0, r0, lsl r0
    8bd0:	00fe1010 	rscseq	r1, lr, r0, lsl r0
    8bd4:	08fe0000 	ldmeq	lr!, {}^	; <UNPREDICTABLE>
    8bd8:	08080808 	stmdaeq	r8, {r3, fp}
    8bdc:	08080808 	stmdaeq	r8, {r3, fp}
    8be0:	00609008 	rsbeq	r9, r0, r8
    8be4:	86820000 	strhi	r0, [r2], r0
    8be8:	a0b0988c 	adcsge	r9, r0, ip, lsl #17
    8bec:	90a0e0c0 	adcls	lr, r0, r0, asr #1
    8bf0:	00868488 	addeq	r8, r6, r8, lsl #9
    8bf4:	80800000 	addhi	r0, r0, r0
    8bf8:	80808080 	addhi	r8, r0, r0, lsl #1
    8bfc:	80808080 	addhi	r8, r0, r0, lsl #1
    8c00:	00fe8080 	rscseq	r8, lr, r0, lsl #1
    8c04:	c6820000 	strgt	r0, [r2], r0
    8c08:	baaaaaee 	blt	feab37c8 <FONT+0xfeaab094>
    8c0c:	82828292 	addhi	r8, r2, #536870921	; 0x20000009
    8c10:	00828282 	addeq	r8, r2, r2, lsl #5
    8c14:	c2820000 	addgt	r0, r2, #0
    8c18:	a2a2c2c2 	adcge	ip, r2, #536870924	; 0x2000000c
    8c1c:	929292a2 	addsls	r9, r2, #536870922	; 0x2000000a
    8c20:	0082868a 	addeq	r8, r2, sl, lsl #13
    8c24:	827c0000 	rsbshi	r0, ip, #0
    8c28:	82828282 	addhi	r8, r2, #536870920	; 0x20000008
    8c2c:	82828282 	addhi	r8, r2, #536870920	; 0x20000008
    8c30:	007c8282 	rsbseq	r8, ip, r2, lsl #5
    8c34:	84f80000 	ldrbthi	r0, [r8], #0
    8c38:	82828282 	addhi	r8, r2, #536870920	; 0x20000008
    8c3c:	8080f884 	addhi	pc, r0, r4, lsl #17
    8c40:	00808080 	addeq	r8, r0, r0, lsl #1
    8c44:	827c0000 	rsbshi	r0, ip, #0
    8c48:	82828282 	addhi	r8, r2, #536870920	; 0x20000008
    8c4c:	8a828282 	bhi	fe0a965c <FONT+0xfe0a0f28>
    8c50:	007c868a 	rsbseq	r8, ip, sl, lsl #13
    8c54:	84f80000 	ldrbthi	r0, [r8], #0
    8c58:	82828282 	addhi	r8, r2, #536870920	; 0x20000008
    8c5c:	a0c0f884 	sbcge	pc, r0, r4, lsl #17
    8c60:	00868890 	umulleq	r8, r6, r0, r8
    8c64:	827c0000 	rsbshi	r0, ip, #0
    8c68:	80808080 	addhi	r8, r0, r0, lsl #1
    8c6c:	02041860 	andeq	r1, r4, #96, 16	; 0x600000
    8c70:	007c8202 	rsbseq	r8, ip, r2, lsl #4
    8c74:	10fe0000 	rscsne	r0, lr, r0
    8c78:	10101010 	andsne	r1, r0, r0, lsl r0
    8c7c:	10101010 	andsne	r1, r0, r0, lsl r0
    8c80:	00101010 	andseq	r1, r0, r0, lsl r0
    8c84:	82820000 	addhi	r0, r2, #0
    8c88:	82828282 	addhi	r8, r2, #536870920	; 0x20000008
    8c8c:	82828282 	addhi	r8, r2, #536870920	; 0x20000008
    8c90:	007c8282 	rsbseq	r8, ip, r2, lsl #5
    8c94:	82820000 	addhi	r0, r2, #0
    8c98:	44444482 	strbmi	r4, [r4], #-1154	; 0xfffffb7e
    8c9c:	28282828 	stmdacs	r8!, {r3, r5, fp, sp}
    8ca0:	00101010 	andseq	r1, r0, r0, lsl r0
    8ca4:	82820000 	addhi	r0, r2, #0
    8ca8:	82828282 	addhi	r8, r2, #536870920	; 0x20000008
    8cac:	92828282 	addls	r8, r2, #536870920	; 0x20000008
    8cb0:	0082c6aa 	addeq	ip, r2, sl, lsr #13
    8cb4:	82820000 	addhi	r0, r2, #0
    8cb8:	28284444 	stmdacs	r8!, {r2, r6, sl, lr}
    8cbc:	28281010 	stmdacs	r8!, {r4, ip}
    8cc0:	00824444 	addeq	r4, r2, r4, asr #8
    8cc4:	82820000 	addhi	r0, r2, #0
    8cc8:	10284444 	eorne	r4, r8, r4, asr #8
    8ccc:	10101010 	andsne	r1, r0, r0, lsl r0
    8cd0:	00101010 	andseq	r1, r0, r0, lsl r0
    8cd4:	82fe0000 	rscshi	r0, lr, #0
    8cd8:	08040402 	stmdaeq	r4, {r1, sl}
    8cdc:	20101008 	andscs	r1, r0, r8
    8ce0:	00fe8240 	rscseq	r8, lr, r0, asr #4
    8ce4:	40780000 	rsbsmi	r0, r8, r0
    8ce8:	40404040 	submi	r4, r0, r0, asr #32
    8cec:	40404040 	submi	r4, r0, r0, asr #32
    8cf0:	00784040 	rsbseq	r4, r8, r0, asr #32
    8cf4:	40400000 	submi	r0, r0, r0
    8cf8:	10102020 	andsne	r2, r0, r0, lsr #32
    8cfc:	04040808 	streq	r0, [r4], #-2056	; 0xfffff7f8
    8d00:	00020202 	andeq	r0, r2, r2, lsl #4
    8d04:	021e0000 	andseq	r0, lr, #0
    8d08:	02020202 	andeq	r0, r2, #536870912	; 0x20000000
    8d0c:	02020202 	andeq	r0, r2, #536870912	; 0x20000000
    8d10:	001e0202 	andseq	r0, lr, r2, lsl #4
    8d14:	10100000 	andsne	r0, r0, r0
    8d18:	00442828 	subeq	r2, r4, r8, lsr #16
	...
    8d30:	007e0000 	rsbseq	r0, lr, r0
    8d34:	20400000 	subcs	r0, r0, r0
    8d38:	00000010 	andeq	r0, r0, r0, lsl r0
	...
    8d4c:	3f01423c 	svccc	0x0001423c
    8d50:	013f4141 	teqeq	pc, r1, asr #2
    8d54:	c0000000 	andgt	r0, r0, r0
    8d58:	40404040 	submi	r4, r0, r0, asr #32
    8d5c:	42427c40 	submi	r7, r2, #64, 24	; 0x4000
    8d60:	007c4242 	rsbseq	r4, ip, r2, asr #4
	...
    8d6c:	8080807e 	addhi	r8, r0, lr, ror r0
    8d70:	007e8080 	rsbseq	r8, lr, r0, lsl #1
    8d74:	06000000 	streq	r0, [r0], -r0
    8d78:	04040404 	streq	r0, [r4], #-1028	; 0xfffffbfc
    8d7c:	84847c04 	strhi	r7, [r4], #3076	; 0xc04
    8d80:	007c8484 	rsbseq	r8, ip, r4, lsl #9
	...
    8d8c:	7e423c00 	cdpvc	12, 4, cr3, cr2, cr0, {0}
    8d90:	003e4040 	eorseq	r4, lr, r0, asr #32
    8d94:	00000000 	andeq	r0, r0, r0
    8d98:	2020201c 	eorcs	r2, r0, ip, lsl r0
    8d9c:	20782020 	rsbscs	r2, r8, r0, lsr #32
    8da0:	007c2020 	rsbseq	r2, ip, r0, lsr #32
    8da4:	00000000 	andeq	r0, r0, r0
    8da8:	8484847a 	strhi	r8, [r4], #1146	; 0x47a
    8dac:	047c8484 	ldrbteq	r8, [ip], #-1156	; 0xfffffb7c
    8db0:	00f00804 	rscseq	r0, r0, r4, lsl #16
    8db4:	c0000000 	andgt	r0, r0, r0
    8db8:	40404040 	submi	r4, r0, r0, asr #32
    8dbc:	4242625c 	submi	r6, r2, #92, 4	; 0xc0000005
    8dc0:	00e64242 	rsceq	r4, r6, r2, asr #4
    8dc4:	00000000 	andeq	r0, r0, r0
    8dc8:	00101000 	andseq	r1, r0, r0
    8dcc:	10101010 	andsne	r1, r0, r0, lsl r0
    8dd0:	00101010 	andseq	r1, r0, r0, lsl r0
    8dd4:	00000000 	andeq	r0, r0, r0
    8dd8:	08080008 	stmdaeq	r8, {r3}
    8ddc:	08080808 	stmdaeq	r8, {r3, fp}
    8de0:	00205008 	eoreq	r5, r0, r8
    8de4:	60000000 	andvs	r0, r0, r0
    8de8:	28242226 	stmdacs	r4!, {r1, r2, r5, r9, sp}
    8dec:	24283030 	strtcs	r3, [r8], #-48	; 0xffffffd0
    8df0:	00662222 	rsbeq	r2, r6, r2, lsr #4
    8df4:	70000000 	andvc	r0, r0, r0
    8df8:	10101010 	andsne	r1, r0, r0, lsl r0
    8dfc:	10101010 	andsne	r1, r0, r0, lsl r0
    8e00:	007c1010 	rsbseq	r1, ip, r0, lsl r0
	...
    8e0c:	8989d5a2 	stmibhi	r9, {r1, r5, r7, r8, sl, ip, lr, pc}
    8e10:	00818989 	addeq	r8, r1, r9, lsl #19
	...
    8e1c:	42426458 	submi	r6, r2, #88, 8	; 0x58000000
    8e20:	00424242 	subeq	r4, r2, r2, asr #4
	...
    8e2c:	8282827c 	addhi	r8, r2, #124, 4	; 0xc0000007
    8e30:	007c8282 	rsbseq	r8, ip, r2, lsl #5
    8e34:	00000000 	andeq	r0, r0, r0
    8e38:	4242427c 	submi	r4, r2, #124, 4	; 0xc0000007
    8e3c:	407c4242 	rsbsmi	r4, ip, r2, asr #4
    8e40:	00404040 	subeq	r4, r0, r0, asr #32
    8e44:	00000000 	andeq	r0, r0, r0
    8e48:	4242423c 	submi	r4, r2, #60, 4	; 0xc0000003
    8e4c:	023e4242 	eorseq	r4, lr, #536870916	; 0x20000004
    8e50:	00020202 	andeq	r0, r2, r2, lsl #4
    8e54:	00000000 	andeq	r0, r0, r0
    8e58:	0c000000 	stceq	0, cr0, [r0], {-0}
    8e5c:	40406052 	submi	r6, r0, r2, asr r0
    8e60:	00604040 	rsbeq	r4, r0, r0, asr #32
    8e64:	00000000 	andeq	r0, r0, r0
    8e68:	3c000000 	stccc	0, cr0, [r0], {-0}
    8e6c:	40404042 	submi	r4, r0, r2, asr #32
    8e70:	3c42023c 	sfmcc	f0, 2, [r2], {60}	; 0x3c
    8e74:	00000000 	andeq	r0, r0, r0
    8e78:	10101010 	andsne	r1, r0, r0, lsl r0
    8e7c:	1010107c 	andsne	r1, r0, ip, ror r0
    8e80:	00040a10 	andeq	r0, r4, r0, lsl sl
	...
    8e8c:	41414141 	cmpmi	r1, r1, asr #2
    8e90:	001c2241 	andseq	r2, ip, r1, asr #4
	...
    8e9c:	44444482 	strbmi	r4, [r4], #-1154	; 0xfffffb7e
    8ea0:	00102828 	andseq	r2, r0, r8, lsr #16
	...
    8eac:	82828282 	addhi	r8, r2, #536870920	; 0x20000008
    8eb0:	00285454 	eoreq	r5, r8, r4, asr r4
	...
    8ebc:	18244200 	stmdane	r4!, {r9, lr}
    8ec0:	42241818 	eormi	r1, r4, #24, 16	; 0x180000
    8ec4:	00000000 	andeq	r0, r0, r0
    8ec8:	42410100 	submi	r0, r1, #0, 2
    8ecc:	080c1422 	stmdaeq	ip, {r1, r5, sl, ip}
    8ed0:	38101008 	ldmdacc	r0, {r3, ip}
	...
    8edc:	0804027e 	stmdaeq	r4, {r1, r2, r3, r4, r5, r6, r9}
    8ee0:	7e402010 	mcrvc	0, 2, r2, cr0, cr0, {0}
    8ee4:	08080400 	stmdaeq	r8, {sl}
    8ee8:	08080808 	stmdaeq	r8, {r3, fp}
    8eec:	08080810 	stmdaeq	r8, {r4, fp}
    8ef0:	00040808 	andeq	r0, r4, r8, lsl #16
    8ef4:	08080800 	stmdaeq	r8, {fp}
    8ef8:	08080808 	stmdaeq	r8, {r3, fp}
    8efc:	08080808 	stmdaeq	r8, {r3, fp}
    8f00:	00080808 	andeq	r0, r8, r8, lsl #16
    8f04:	10102000 	andsne	r2, r0, r0
    8f08:	10101010 	andsne	r1, r0, r0, lsl r0
    8f0c:	10101008 	andsne	r1, r0, r8
    8f10:	00201010 	eoreq	r1, r0, r0, lsl r0
    8f14:	00000000 	andeq	r0, r0, r0
    8f18:	29100000 	ldmdbcs	r0, {}	; <UNPREDICTABLE>
    8f1c:	00004225 	andeq	r4, r0, r5, lsr #4
	...
    8f34:	6c6c6548 	cfstr64vs	mvdx6, [ip], #-288	; 0xfffffee0
    8f38:	74202c6f 	strtvc	r2, [r0], #-3183	; 0xfffff391
    8f3c:	20736968 	rsbscs	r6, r3, r8, ror #18
    8f40:	61207369 	teqvs	r0, r9, ror #6
    8f44:	73657420 	cmnvc	r5, #32, 8	; 0x20000000
    8f48:	6f742074 	svcvs	0x00742074
    8f4c:	65657320 	strbvs	r7, [r5, #-800]!	; 0xfffffce0
    8f50:	20666920 	rsbcs	r6, r6, r0, lsr #18
    8f54:	20656874 	rsbcs	r6, r5, r4, ror r8
    8f58:	746e6573 	strbtvc	r6, [lr], #-1395	; 0xfffffa8d
    8f5c:	65636e65 	strbvs	r6, [r3, #-3685]!	; 0xfffff19b
    8f60:	6c697720 	stclvs	7, cr7, [r9], #-128	; 0xffffff80
    8f64:	656b206c 	strbvs	r2, [fp, #-108]!	; 0xffffff94
    8f68:	6f207065 	svcvs	0x00207065
    8f6c:	6f67206e 	svcvs	0x0067206e
    8f70:	20676e69 	rsbcs	r6, r7, r9, ror #28
    8f74:	6f746e6f 	svcvs	0x00746e6f
    8f78:	65687420 	strbvs	r7, [r8, #-1056]!	; 0xfffffbe0
    8f7c:	78656e20 	stmdavc	r5!, {r5, r9, sl, fp, sp, lr}^
    8f80:	696c2074 	stmdbvs	ip!, {r2, r4, r5, r6, sp}^
    8f84:	7720656e 	strvc	r6, [r0, -lr, ror #10]!
    8f88:	206e6568 	rsbcs	r6, lr, r8, ror #10
    8f8c:	6f207469 	svcvs	0x00207469
    8f90:	66726576 			; <UNDEFINED> instruction: 0x66726576
    8f94:	73776f6c 	cmnvc	r7, #108, 30	; 0x1b0
    8f98:	65687420 	strbvs	r7, [r8, #-1056]!	; 0xfffffbe0
    8f9c:	72637320 	rsbvc	r7, r3, #32, 6	; 0x80000000
    8fa0:	206e6565 	rsbcs	r6, lr, r5, ror #10
    8fa4:	736b6c61 	cmnvc	fp, #24832	; 0x6100
    8fa8:	6c66646a 	cfstrdvs	mvd6, [r6], #-424	; 0xfffffe58
    8fac:	6a73616b 	bvs	1ce1560 <FONT+0x1cd8e2c>
    8fb0:	6b6c6664 	blvs	1b22948 <FONT+0x1b1a214>
    8fb4:	6461736a 	strbtvs	r7, [r1], #-874	; 0xfffffc96
    8fb8:	6a6b666c 	bvs	1ae2970 <FONT+0x1ada23c>
    8fbc:	6c647361 	stclvs	3, cr7, [r4], #-388	; 0xfffffe7c
    8fc0:	6c6a666b 	stclvs	6, cr6, [sl], #-428	; 0xfffffe54
    8fc4:	6461736b 	strbtvs	r7, [r1], #-875	; 0xfffffc95
    8fc8:	6b6c666a 	blvs	1b22978 <FONT+0x1b1a244>
    8fcc:	6a647361 	bvs	1925d58 <FONT+0x191d624>
    8fd0:	6a6c6b66 	bvs	1b23d70 <FONT+0x1b1b63c>
    8fd4:	6c646173 	stfvse	f6, [r4], #-460	; 0xfffffe34
    8fd8:	736a666b 	cmnvc	sl, #112197632	; 0x6b00000
    8fdc:	6b646c61 	blvs	1924168 <FONT+0x191ba34>
    8fe0:	736c6a66 	cmnvc	ip, #417792	; 0x66000
    8fe4:	6a646b61 	bvs	1923d70 <FONT+0x191b63c>
    8fe8:	736b6c66 	cmnvc	fp, #26112	; 0x6600
    8fec:	666a6461 	strbtvs	r6, [sl], -r1, ror #8
    8ff0:	73616b6c 	cmnvc	r1, #108, 22	; 0x1b000
    8ff4:	6c66646a 	cfstrdvs	mvd6, [r6], #-424	; 0xfffffe58
    8ff8:	61736a6b 	cmnvs	r3, fp, ror #20
    8ffc:	6b666c64 	blvs	19a4194 <FONT+0x199ba60>
    9000:	6c61736a 	stclvs	3, cr7, [r1], #-424	; 0xfffffe58
    9004:	6a666b64 	bvs	19a3d9c <FONT+0x199b668>
    9008:	73616b6c 	cmnvc	r1, #108, 22	; 0x1b000
    900c:	7765666a 	strbvc	r6, [r5, -sl, ror #12]!
    9010:	656f696a 	strbvs	r6, [pc, #-2410]!	; 86ae <init_frame_buffer+0xa2>
    9014:	6f66776a 	svcvs	0x0066776a
    9018:	65776a69 	ldrbvs	r6, [r7, #-2665]!	; 0xfffff597
    901c:	6a66696f 	bvs	19a35e0 <FONT+0x199aeac>
    9020:	696f6577 	stmdbvs	pc!, {r0, r1, r2, r4, r5, r6, r8, sl, sp, lr}^	; <UNPREDICTABLE>
    9024:	696f6a66 	stmdbvs	pc!, {r1, r2, r5, r6, r9, fp, sp, lr}^	; <UNPREDICTABLE>
    9028:	6f636e77 	svcvs	0x00636e77
    902c:	6f766e69 	svcvs	0x00766e69
    9030:	6f766e69 	svcvs	0x00766e69
    9034:	77656e69 	strbvc	r6, [r5, -r9, ror #28]!
    9038:	6e696f76 	mcrvs	15, 3, r6, cr9, cr6, {3}
    903c:	6f696577 	svcvs	0x00696577
    9040:	696f6e76 	stmdbvs	pc!, {r1, r2, r4, r5, r6, r9, sl, fp, sp, lr}^	; <UNPREDICTABLE>
    9044:	766e6577 			; <UNDEFINED> instruction: 0x766e6577
    9048:	6e77696f 	cdpvs	9, 7, cr6, cr7, cr15, {3}
    904c:	6f697665 	svcvs	0x00697665
    9050:	6f65776e 	svcvs	0x0065776e
    9054:	77696e69 	strbvc	r6, [r9, -r9, ror #28]!
    9058:	766e6f65 	strbtvc	r6, [lr], -r5, ror #30
    905c:	6e776f69 	cdpvs	15, 7, cr6, cr7, cr9, {3}
    9060:	6f766965 	svcvs	0x00766965
    9064:	696f776e 	stmdbvs	pc!, {r1, r2, r3, r5, r6, r8, r9, sl, ip, sp, lr}^	; <UNPREDICTABLE>
    9068:	69766e65 	ldmdbvs	r6!, {r0, r2, r5, r6, r9, sl, fp, sp, lr}^
    906c:	6e65776f 	cdpvs	7, 6, cr7, cr5, cr15, {3}
    9070:	776f6976 			; <UNDEFINED> instruction: 0x776f6976
    9074:	6f6e7665 	svcvs	0x006e7665
    9078:	6e657769 	cdpvs	7, 6, cr7, cr5, cr9, {3}
    907c:	77696f76 			; <UNDEFINED> instruction: 0x77696f76
    9080:	6f76656e 	svcvs	0x0076656e
    9084:	69776e69 	ldmdbvs	r7!, {r0, r3, r5, r6, r9, sl, fp, sp, lr}^
    9088:	766e6f65 	strbtvc	r6, [lr], -r5, ror #30
    908c:	776e696f 	strbvc	r6, [lr, -pc, ror #18]!
    9090:	6e696f65 	cdpvs	15, 6, cr6, cr9, cr5, {3}
    9094:	76657769 	strbtvc	r7, [r5], -r9, ror #14
    9098:	6f696e6f 	svcvs	0x00696e6f
    909c:	666a6577 			; <UNDEFINED> instruction: 0x666a6577
    90a0:	0000002e 	andeq	r0, r0, lr, lsr #32

Disassembly of section .ARM.attributes:

00000000 <.ARM.attributes>:
   0:	00002a41 	andeq	r2, r0, r1, asr #20
   4:	61656100 	cmnvs	r5, r0, lsl #2
   8:	01006962 	tsteq	r0, r2, ror #18
   c:	00000020 	andeq	r0, r0, r0, lsr #32
  10:	4d524105 	ldfmie	f4, [r2, #-20]	; 0xffffffec
  14:	54347620 	ldrtpl	r7, [r4], #-1568	; 0xfffff9e0
  18:	08020600 	stmdaeq	r2, {r9, sl}
  1c:	12010901 	andne	r0, r1, #16384	; 0x4000
  20:	15011404 	strne	r1, [r1, #-1028]	; 0xfffffbfc
  24:	18031701 	stmdane	r3, {r0, r8, r9, sl, ip}
  28:	Address 0x0000000000000028 is out of bounds.


Disassembly of section .comment:

00000000 <.comment>:
   0:	3a434347 	bcc	10d0d24 <FONT+0x10c85f0>
   4:	2e342820 	cdpcs	8, 3, cr2, cr4, cr0, {1}
   8:	2d342e38 	ldccs	14, cr2, [r4, #-224]!	; 0xffffff20
   c:	31312b31 	teqcc	r1, r1, lsr fp
  10:	2029312d 	eorcs	r3, r9, sp, lsr #2
  14:	2e382e34 	mrccs	14, 1, r2, cr8, cr4, {1}
  18:	30322034 	eorscc	r2, r2, r4, lsr r0
  1c:	32313431 	eorscc	r3, r1, #822083584	; 0x31000000
  20:	28203931 	stmdacs	r0!, {r0, r4, r5, r8, fp, ip, sp}
  24:	656c6572 	strbvs	r6, [ip, #-1394]!	; 0xfffffa8e
  28:	29657361 	stmdbcs	r5!, {r0, r5, r6, r8, r9, ip, sp, lr}^
	...
